target datalayout = "e-m:e-p270:32:32-p271:32:32-p272:64:64-i64:64-i128:128-f80:128-n8:16:32:64-S128"
target triple = "x86_64-pc-linux-gnu"

%"class.euf::ac_plugin" = type { %"class.euf::plugin", i32, i32, ptr, %class.vector, %class.ptr_vector, %class.svector, %class.vector.2, %class.svector.3, %class.stacked_dependency_manager, %class.tracked_uint_set, %class.tracked_uint_set, i64, %"struct.euf::ac_plugin::monomial_hash", %"struct.euf::ac_plugin::monomial_eq", %class.map, %class.svector.11, %class.ptr_vector, %class.svector.13, %class.svector.15, %class.svector.17, %"class.std::function", %class.ptr_vector.19, %class.ptr_vector, %class.ptr_vector, %class.ptr_vector, %class.ptr_vector, %"struct.euf::ac_plugin::ref_counts", %"struct.euf::ac_plugin::ref_counts", %"struct.euf::ac_plugin::ref_counts", %"struct.euf::ac_plugin::ref_counts", %"struct.euf::ac_plugin::ref_counts", %"struct.euf::ac_plugin::ref_counts", %class.svector.9, %class.svector }
%"class.euf::plugin" = type { ptr, ptr }
%class.vector = type { ptr }
%class.vector.2 = type { ptr }
%class.svector.3 = type { %class.vector.4 }
%class.vector.4 = type { ptr }
%class.stacked_dependency_manager = type { [8 x i8], %"class.stacked_dependency_manager<euf::justification>::config::allocator", %class.dependency_manager }
%"class.stacked_dependency_manager<euf::justification>::config::allocator" = type { ptr }
%class.dependency_manager = type { ptr, ptr, %class.ptr_vector.5 }
%class.ptr_vector.5 = type { %class.vector.6 }
%class.vector.6 = type { ptr }
%class.tracked_uint_set = type { %class.svector.7, %class.svector.9 }
%class.svector.7 = type { %class.vector.8 }
%class.vector.8 = type { ptr }
%"struct.euf::ac_plugin::monomial_hash" = type { ptr }
%"struct.euf::ac_plugin::monomial_eq" = type { ptr }
%class.map = type { %class.table2map }
%class.table2map = type { %class.core_hashtable }
%class.core_hashtable = type <{ %"struct.table2map<default_map_entry<unsigned int, euf::ac_plugin::shared>, euf::ac_plugin::monomial_hash, euf::ac_plugin::monomial_eq>::entry_hash_proc", %"struct.table2map<default_map_entry<unsigned int, euf::ac_plugin::shared>, euf::ac_plugin::monomial_hash, euf::ac_plugin::monomial_eq>::entry_eq_proc", ptr, i32, i32, i32, [4 x i8] }>
%"struct.table2map<default_map_entry<unsigned int, euf::ac_plugin::shared>, euf::ac_plugin::monomial_hash, euf::ac_plugin::monomial_eq>::entry_hash_proc" = type { %"struct.euf::ac_plugin::monomial_hash" }
%"struct.table2map<default_map_entry<unsigned int, euf::ac_plugin::shared>, euf::ac_plugin::monomial_hash, euf::ac_plugin::monomial_eq>::entry_eq_proc" = type { %"struct.euf::ac_plugin::monomial_eq" }
%class.svector.11 = type { %class.vector.12 }
%class.vector.12 = type { ptr }
%class.svector.13 = type { %class.vector.14 }
%class.vector.14 = type { ptr }
%class.svector.15 = type { %class.vector.16 }
%class.vector.16 = type { ptr }
%class.svector.17 = type { %class.vector.18 }
%class.vector.18 = type { ptr }
%"class.std::function" = type { %"class.std::_Function_base", ptr }
%"class.std::_Function_base" = type { %"union.std::_Any_data", ptr }
%"union.std::_Any_data" = type { %"union.std::_Nocopy_types" }
%"union.std::_Nocopy_types" = type { { i64, i64 } }
%class.ptr_vector.19 = type { %class.vector.20 }
%class.vector.20 = type { ptr }
%class.ptr_vector = type { %class.vector.0 }
%class.vector.0 = type { ptr }
%"struct.euf::ac_plugin::ref_counts" = type { %class.svector.9, %class.svector.9 }
%class.svector.9 = type { %class.vector.10 }
%class.vector.10 = type { ptr }
%class.svector = type { %class.vector.1 }
%class.vector.1 = type { ptr }
%"class.euf::justification" = type { i32, %union.anon, %union.anon.41 }
%union.anon = type { ptr }
%union.anon.41 = type { ptr }
%"struct.dependency_manager<stacked_dependency_manager<euf::justification>::config>::join" = type { %"class.dependency_manager<stacked_dependency_manager<euf::justification>::config>::dependency", [2 x ptr] }
%"class.dependency_manager<stacked_dependency_manager<euf::justification>::config>::dependency" = type { i32 }

; Function Attrs: mustprogress nounwind uwtable
define linkonce_odr hidden void @_ZN18dependency_managerIN26stacked_dependency_managerIN3euf13justificationEE6configEE10dependencyC2Eb(ptr noundef nonnull align 4 dereferenceable(4) %0, i1 noundef zeroext %1) unnamed_addr #5 comdat align 2 {
  %3 = alloca ptr, align 8
  %4 = alloca i8, align 1
  store ptr %0, ptr %3, align 8, !tbaa !314
  %5 = zext i1 %1 to i8
  store i8 %5, ptr %4, align 1, !tbaa !158
  %6 = load ptr, ptr %3, align 8
  %7 = load i32, ptr %6, align 4
  %8 = and i32 %7, -1073741824
  %9 = or i32 %8, 0
  store i32 %9, ptr %6, align 4
  %10 = load i32, ptr %6, align 4
  %11 = and i32 %10, -1073741825
  %12 = or i32 %11, 0
  store i32 %12, ptr %6, align 4
  %13 = load i8, ptr %4, align 1, !tbaa !158, !range !160, !noundef !161
  %14 = trunc i8 %13 to i1
  %15 = zext i1 %14 to i32
  %16 = load i32, ptr %6, align 4
  %17 = and i32 %15, 1
  %18 = shl i32 %17, 31
  %19 = and i32 %16, 2147483647
  %20 = or i32 %19, %18
  store i32 %20, ptr %6, align 4
  ret void
}

; Function Attrs: mustprogress uwtable
define linkonce_odr hidden void @_ZN18dependency_managerIN26stacked_dependency_managerIN3euf13justificationEE6configEE4joinC2EPNS5_10dependencyES8_(ptr noundef nonnull align 8 dereferenceable(24) %0, ptr noundef %1, ptr noundef %2) unnamed_addr #4 comdat align 2 {
  %4 = alloca ptr, align 8
  %5 = alloca ptr, align 8
  %6 = alloca ptr, align 8
  store ptr %0, ptr %4, align 8, !tbaa !554
  store ptr %1, ptr %5, align 8, !tbaa !314
  store ptr %2, ptr %6, align 8, !tbaa !314
  %7 = load ptr, ptr %4, align 8
  call void @_ZN18dependency_managerIN26stacked_dependency_managerIN3euf13justificationEE6configEE10dependencyC2Eb(ptr noundef nonnull align 4 dereferenceable(4) %7, i1 noundef zeroext false)
  %8 = load ptr, ptr %5, align 8, !tbaa !314
  %9 = getelementptr inbounds nuw %"struct.dependency_manager<stacked_dependency_manager<euf::justification>::config>::join", ptr %7, i32 0, i32 1
  %10 = getelementptr inbounds [2 x ptr], ptr %9, i64 0, i64 0
  store ptr %8, ptr %10, align 8, !tbaa !314
  %11 = load ptr, ptr %6, align 8, !tbaa !314
  %12 = getelementptr inbounds nuw %"struct.dependency_manager<stacked_dependency_manager<euf::justification>::config>::join", ptr %7, i32 0, i32 1
  %13 = getelementptr inbounds [2 x ptr], ptr %12, i64 0, i64 1
  store ptr %11, ptr %13, align 8, !tbaa !314
  ret void
}

; Function Attrs: mustprogress nounwind uwtable
define linkonce_odr hidden void @_ZN18dependency_managerIN26stacked_dependency_managerIN3euf13justificationEE6configEE7inc_refEPNS5_10dependencyE(ptr noundef nonnull align 8 dereferenceable(24) %0, ptr noundef %1) #5 comdat align 2 {
  %3 = alloca ptr, align 8
  %4 = alloca ptr, align 8
  store ptr %0, ptr %3, align 8, !tbaa !338
  store ptr %1, ptr %4, align 8, !tbaa !314
  %5 = load ptr, ptr %4, align 8, !tbaa !314
  %6 = icmp ne ptr %5, null
  br i1 %6, label %7, label %16

7:                                                ; preds = %2
  %8 = load ptr, ptr %4, align 8, !tbaa !314
  %9 = load i32, ptr %8, align 4
  %10 = and i32 %9, 1073741823
  %11 = add i32 %10, 1
  %12 = load i32, ptr %8, align 4
  %13 = and i32 %11, 1073741823
  %14 = and i32 %12, -1073741824
  %15 = or i32 %14, %13
  store i32 %15, ptr %8, align 4
  br label %16

16:                                               ; preds = %7, %2
  ret void
}

; Function Attrs: mustprogress uwtable
define linkonce_odr hidden noundef ptr @_ZN26stacked_dependency_managerIN3euf13justificationEE6config9allocator8allocateEm(ptr noundef nonnull align 8 dereferenceable(8) %0, i64 noundef %1) #4 comdat align 2 {
  %3 = alloca ptr, align 8
  %4 = alloca i64, align 8
  store ptr %0, ptr %3, align 8, !tbaa !448
  store i64 %1, ptr %4, align 8, !tbaa !277
  %5 = load ptr, ptr %3, align 8
  %6 = getelementptr inbounds nuw %"class.stacked_dependency_manager<euf::justification>::config::allocator", ptr %5, i32 0, i32 0
  %7 = load ptr, ptr %6, align 8, !tbaa !553
  %8 = load i64, ptr %4, align 8, !tbaa !277
  %9 = call noundef ptr @_ZN6region8allocateEm(ptr noundef nonnull align 8 dereferenceable(40) %7, i64 noundef %8)
  ret ptr %9
}

; Function Attrs: mustprogress nounwind uwtable
define linkonce_odr hidden void @_ZN3euf13justificationC2EPN18dependency_managerIN26stacked_dependency_managerIS0_E6configEE10dependencyEi(ptr noundef nonnull align 8 dereferenceable(24) %0, ptr noundef %1, i32 noundef %2) unnamed_addr #5 comdat align 2 {
  %4 = alloca ptr, align 8
  %5 = alloca ptr, align 8
  %6 = alloca i32, align 4
  store ptr %0, ptr %4, align 8, !tbaa !316
  store ptr %1, ptr %5, align 8, !tbaa !314
  store i32 %2, ptr %6, align 4, !tbaa !10
  %7 = load ptr, ptr %4, align 8
  %8 = getelementptr inbounds nuw %"class.euf::justification", ptr %7, i32 0, i32 0
  store i32 3, ptr %8, align 8, !tbaa !385
  %9 = getelementptr inbounds nuw %"class.euf::justification", ptr %7, i32 0, i32 1
  store i8 0, ptr %9, align 8, !tbaa !189
  %10 = getelementptr inbounds nuw %"class.euf::justification", ptr %7, i32 0, i32 2
  %11 = load ptr, ptr %5, align 8, !tbaa !314
  store ptr %11, ptr %10, align 8, !tbaa !189
  ret void
}

; Function Attrs: mustprogress uwtable
define linkonce_odr hidden noundef ptr @_ZN18dependency_managerIN26stacked_dependency_managerIN3euf13justificationEE6configEE7mk_joinEPNS5_10dependencyES7_(ptr noundef nonnull align 8 dereferenceable(24) %0, ptr noundef %1, ptr noundef %2) #4 comdat align 2 {
  %4 = alloca ptr, align 8
  %5 = alloca ptr, align 8
  %6 = alloca ptr, align 8
  %7 = alloca ptr, align 8
  %8 = alloca ptr, align 8
  store ptr %0, ptr %5, align 8, !tbaa !338
  store ptr %1, ptr %6, align 8, !tbaa !314
  store ptr %2, ptr %7, align 8, !tbaa !314
  %9 = load ptr, ptr %5, align 8
  %10 = load ptr, ptr %6, align 8, !tbaa !314
  %11 = icmp eq ptr %10, null
  br i1 %11, label %12, label %14

12:                                               ; preds = %3
  %13 = load ptr, ptr %7, align 8, !tbaa !314
  store ptr %13, ptr %4, align 8
  br label %34

14:                                               ; preds = %3
  %15 = load ptr, ptr %7, align 8, !tbaa !314
  %16 = icmp eq ptr %15, null
  br i1 %16, label %17, label %19

17:                                               ; preds = %14
  %18 = load ptr, ptr %6, align 8, !tbaa !314
  store ptr %18, ptr %4, align 8
  br label %34

19:                                               ; preds = %14
  %20 = load ptr, ptr %6, align 8, !tbaa !314
  %21 = load ptr, ptr %7, align 8, !tbaa !314
  %22 = icmp eq ptr %20, %21
  br i1 %22, label %23, label %25

23:                                               ; preds = %19
  %24 = load ptr, ptr %6, align 8, !tbaa !314
  store ptr %24, ptr %4, align 8
  br label %34

25:                                               ; preds = %19
  call void @llvm.lifetime.start.p0(i64 8, ptr %8) #3
  %26 = getelementptr inbounds nuw %class.dependency_manager, ptr %9, i32 0, i32 1
  %27 = load ptr, ptr %26, align 8, !tbaa !552
  %28 = call noundef ptr @_ZN26stacked_dependency_managerIN3euf13justificationEE6config9allocator8allocateEm(ptr noundef nonnull align 8 dereferenceable(8) %27, i64 noundef 24)
  store ptr %28, ptr %8, align 8, !tbaa !300
  %29 = load ptr, ptr %6, align 8, !tbaa !314
  call void @_ZN18dependency_managerIN26stacked_dependency_managerIN3euf13justificationEE6configEE7inc_refEPNS5_10dependencyE(ptr noundef nonnull align 8 dereferenceable(24) %9, ptr noundef %29)
  %30 = load ptr, ptr %7, align 8, !tbaa !314
  call void @_ZN18dependency_managerIN26stacked_dependency_managerIN3euf13justificationEE6configEE7inc_refEPNS5_10dependencyE(ptr noundef nonnull align 8 dereferenceable(24) %9, ptr noundef %30)
  %31 = load ptr, ptr %8, align 8, !tbaa !300
  %32 = load ptr, ptr %6, align 8, !tbaa !314
  %33 = load ptr, ptr %7, align 8, !tbaa !314
  call void @_ZN18dependency_managerIN26stacked_dependency_managerIN3euf13justificationEE6configEE4joinC2EPNS5_10dependencyES8_(ptr noundef nonnull align 8 dereferenceable(24) %31, ptr noundef %32, ptr noundef %33)
  store ptr %31, ptr %4, align 8
  call void @llvm.lifetime.end.p0(i64 8, ptr %8) #3
  br label %34

34:                                               ; preds = %25, %23, %17, %12
  %35 = load ptr, ptr %4, align 8
  ret ptr %35
}

; Function Attrs: mustprogress uwtable
define linkonce_odr hidden void @_ZN3euf13justification9dependentEPN18dependency_managerIN26stacked_dependency_managerIS0_E6configEE10dependencyE(ptr dead_on_unwind noalias writable sret(%"class.euf::justification") align 8 %0, ptr noundef %1) #4 comdat align 2 {
  %3 = alloca ptr, align 8
  store ptr %1, ptr %3, align 8, !tbaa !314
  %4 = load ptr, ptr %3, align 8, !tbaa !314
  call void @_ZN3euf13justificationC2EPN18dependency_managerIN26stacked_dependency_managerIS0_E6configEE10dependencyEi(ptr noundef nonnull align 8 dereferenceable(24) %0, ptr noundef %4, i32 noundef 1)
  ret void
}

; Function Attrs: mustprogress uwtable
define linkonce_odr hidden noundef ptr @_ZN26stacked_dependency_managerIN3euf13justificationEE7mk_joinEPN18dependency_managerINS2_6configEE10dependencyES7_(ptr noundef nonnull align 8 dereferenceable(40) %0, ptr noundef %1, ptr noundef %2) #4 comdat align 2 {
  %4 = alloca ptr, align 8
  %5 = alloca ptr, align 8
  %6 = alloca ptr, align 8
  store ptr %0, ptr %4, align 8, !tbaa !92
  store ptr %1, ptr %5, align 8, !tbaa !314
  store ptr %2, ptr %6, align 8, !tbaa !314
  %7 = load ptr, ptr %4, align 8
  %8 = getelementptr inbounds nuw %class.stacked_dependency_manager, ptr %7, i32 0, i32 2
  %9 = load ptr, ptr %5, align 8, !tbaa !314
  %10 = load ptr, ptr %6, align 8, !tbaa !314
  %11 = call noundef ptr @_ZN18dependency_managerIN26stacked_dependency_managerIN3euf13justificationEE6configEE7mk_joinEPNS5_10dependencyES7_(ptr noundef nonnull align 8 dereferenceable(24) %8, ptr noundef %9, ptr noundef %10)
  ret ptr %11
}

; Function Attrs: mustprogress uwtable
define hidden void @_ZN3euf9ac_plugin15justify_rewriteEjj(ptr dead_on_unwind noalias writable sret(%"class.euf::justification") align 8 %0, ptr noundef nonnull align 8 dereferenceable(432) %1, i32 noundef %2, i32 noundef %3) #4 align 2 {
  %5 = alloca ptr, align 8
  %6 = alloca i32, align 4
  %7 = alloca i32, align 4
  %8 = alloca ptr, align 8
  store ptr %1, ptr %5, align 8, !tbaa !3
  store i32 %2, ptr %6, align 4, !tbaa !10
  store i32 %3, ptr %7, align 4, !tbaa !10
  %9 = load ptr, ptr %5, align 8
  call void @llvm.lifetime.start.p0(i64 8, ptr %8) #3
  %10 = getelementptr inbounds nuw %"class.euf::ac_plugin", ptr %9, i32 0, i32 9
  %11 = load i32, ptr %6, align 4, !tbaa !10
  %12 = call noundef ptr @_ZN3euf9ac_plugin16justify_equationEj(ptr noundef nonnull align 8 dereferenceable(432) %9, i32 noundef %11)
  %13 = load i32, ptr %7, align 4, !tbaa !10
  %14 = call noundef ptr @_ZN3euf9ac_plugin16justify_equationEj(ptr noundef nonnull align 8 dereferenceable(432) %9, i32 noundef %13)
  %15 = call noundef ptr @_ZN26stacked_dependency_managerIN3euf13justificationEE7mk_joinEPN18dependency_managerINS2_6configEE10dependencyES7_(ptr noundef nonnull align 8 dereferenceable(40) %10, ptr noundef %12, ptr noundef %14)
  store ptr %15, ptr %8, align 8, !tbaa !314
  %16 = load ptr, ptr %8, align 8, !tbaa !314
  call void @_ZN3euf13justification9dependentEPN18dependency_managerIN26stacked_dependency_managerIS0_E6configEE10dependencyE(ptr dead_on_unwind writable sret(%"class.euf::justification") align 8 %0, ptr noundef %16)
  call void @llvm.lifetime.end.p0(i64 8, ptr %8) #3
  ret void
}