; Function Attrs: mustprogress uwtable
define hidden void @_ZN3euf9ac_plugin15justify_rewriteEjj(ptr dead_on_unwind noalias writable writeonly sret(%"class.euf::justification") align 8 captures(none) initializes((0, 4), (8, 9), (16, 24)) %0, ptr noundef nonnull readonly align 8 captures(none) dereferenceable(432) %1, i32 noundef %2, i32 noundef %3) local_unnamed_addr #3 align 2 {
  %5 = tail call noundef ptr @_ZN3euf9ac_plugin16justify_equationEj(ptr noundef nonnull align 8 dereferenceable(432) %1, i32 noundef %2)
  %6 = tail call noundef ptr @_ZN3euf9ac_plugin16justify_equationEj(ptr noundef nonnull align 8 dereferenceable(432) %1, i32 noundef %3)
  %7 = icmp eq ptr %5, null
  br i1 %7, label %_ZN26stacked_dependency_managerIN3euf13justificationEE7mk_joinEPN18dependency_managerINS2_6configEE10dependencyES7_.exit, label %8

8:                                                ; preds = %4
  %9 = icmp eq ptr %6, null
  %10 = icmp eq ptr %5, %6
  %or.cond.i.i = or i1 %9, %10
  br i1 %or.cond.i.i, label %_ZN26stacked_dependency_managerIN3euf13justificationEE7mk_joinEPN18dependency_managerINS2_6configEE10dependencyES7_.exit, label %_ZN18dependency_managerIN26stacked_dependency_managerIN3euf13justificationEE6configEE7inc_refEPNS5_10dependencyE.exit17.i.i

_ZN18dependency_managerIN26stacked_dependency_managerIN3euf13justificationEE6configEE7inc_refEPNS5_10dependencyE.exit17.i.i: ; preds = %8
  %11 = getelementptr inbounds nuw i8, ptr %1, i64 96
  %12 = load ptr, ptr %11, align 8, !tbaa !242
  %13 = load ptr, ptr %12, align 8, !tbaa !243
  %14 = tail call noundef ptr @_ZN6region8allocateEm(ptr noundef nonnull align 8 dereferenceable(40) %13, i64 noundef 24)
  %15 = load i32, ptr %5, align 4
  %16 = add i32 %15, 1
  %17 = and i32 %16, 1073741823
  %18 = and i32 %15, -1073741824
  %19 = or disjoint i32 %17, %18
  store i32 %19, ptr %5, align 4
  %20 = load i32, ptr %6, align 4
  %21 = add i32 %20, 1
  %22 = and i32 %21, 1073741823
  %23 = and i32 %20, -1073741824
  %24 = or disjoint i32 %22, %23
  store i32 %24, ptr %6, align 4
  store i32 0, ptr %14, align 4
  %25 = getelementptr inbounds nuw i8, ptr %14, i64 8
  store ptr %5, ptr %25, align 8, !tbaa !244
  %26 = getelementptr inbounds nuw i8, ptr %14, i64 16
  store ptr %6, ptr %26, align 8, !tbaa !244
  br label %_ZN26stacked_dependency_managerIN3euf13justificationEE7mk_joinEPN18dependency_managerINS2_6configEE10dependencyES7_.exit

_ZN26stacked_dependency_managerIN3euf13justificationEE7mk_joinEPN18dependency_managerINS2_6configEE10dependencyES7_.exit: ; preds = %4, %8, %_ZN18dependency_managerIN26stacked_dependency_managerIN3euf13justificationEE6configEE7inc_refEPNS5_10dependencyE.exit17.i.i
  %.0.i.i = phi ptr [ %14, %_ZN18dependency_managerIN26stacked_dependency_managerIN3euf13justificationEE6configEE7inc_refEPNS5_10dependencyE.exit17.i.i ], [ %6, %4 ], [ %5, %8 ]
  store i32 3, ptr %0, align 8, !tbaa !88, !alias.scope !272
  %27 = getelementptr inbounds nuw i8, ptr %0, i64 8
  store i8 0, ptr %27, align 8, !tbaa !89, !alias.scope !272
  %28 = getelementptr inbounds nuw i8, ptr %0, i64 16
  store ptr %.0.i.i, ptr %28, align 8, !tbaa !89, !alias.scope !272
  ret void
}